target datalayout = "e-m:e-p270:32:32-p271:32:32-p272:64:64-i64:64-i128:128-f80:128-n8:16:32:64-S128"
target triple = "x86_64-unknown-linux-gnu"

%"class.std::set.0" = type { %"class.std::_Rb_tree.1" }
%"class.std::_Rb_tree.1" = type { %"struct.std::_Rb_tree<QuantLib::Observer *, QuantLib::Observer *, std::_Identity<QuantLib::Observer *>, std::less<QuantLib::Observer *>>::_Rb_tree_impl" }
%"struct.std::_Rb_tree<QuantLib::Observer *, QuantLib::Observer *, std::_Identity<QuantLib::Observer *>, std::less<QuantLib::Observer *>>::_Rb_tree_impl" = type { [8 x i8], %"struct.std::_Rb_tree_header" }
%"struct.std::_Rb_tree_header" = type { %"struct.std::_Rb_tree_node_base", i64 }
%"struct.std::_Rb_tree_node_base" = type { i32, ptr, ptr, ptr }
%"class.std::set" = type { %"class.std::_Rb_tree" }
%"class.std::_Rb_tree" = type { %"struct.std::_Rb_tree<boost::shared_ptr<QuantLib::Observable>, boost::shared_ptr<QuantLib::Observable>, std::_Identity<boost::shared_ptr<QuantLib::Observable>>, std::less<boost::shared_ptr<QuantLib::Observable>>>::_Rb_tree_impl" }
%"struct.std::_Rb_tree<boost::shared_ptr<QuantLib::Observable>, boost::shared_ptr<QuantLib::Observable>, std::_Identity<boost::shared_ptr<QuantLib::Observable>>, std::less<boost::shared_ptr<QuantLib::Observable>>>::_Rb_tree_impl" = type { [8 x i8], %"struct.std::_Rb_tree_header" }
%"class.boost::detail::shared_count" = type { ptr }
%"class.QuantLib::Observable" = type { ptr, %"class.std::set.0" }
%"class.QuantLib::Observer" = type { ptr, %"class.std::set" }
%"class.QuantLib::ImpliedStdDevQuote" = type { %"class.QuantLib::Quote.base", %"class.QuantLib::LazyObject.base", double, i32, double, double, i32, %"class.QuantLib::Handle", %"class.QuantLib::Handle", %"class.QuantLib::Observable", %"class.QuantLib::Observer" }
%"class.QuantLib::Quote.base" = type { ptr }
%"class.QuantLib::LazyObject.base" = type <{ ptr, i8, i8, i8, i8 }>
%"class.QuantLib::Handle" = type { %"class.boost::shared_ptr.18" }
%"class.boost::shared_ptr.18" = type { ptr, %"class.boost::detail::shared_count" }
%"class.boost::shared_ptr.19" = type { ptr, %"class.boost::detail::shared_count" }

@_ZTIN8QuantLib5ErrorE = external constant ptr
@.str.6 = private unnamed_addr constant [8 x i8] c"px != 0\00", align 1
@.str.7 = private unnamed_addr constant [102 x i8] c"generated/home/dtcxzyw/WorkSpace/SDK/vcpkg/installed/x64-linux/include/boost/smart_ptr/shared_ptr.hpp\00", align 1
@__PRETTY_FUNCTION__._ZNK5boost10shared_ptrIN8QuantLib5QuoteEEptEv = private unnamed_addr constant [127 x i8] c"typename boost::detail::sp_member_access<T>::type boost::shared_ptr<QuantLib::Quote>::operator->() const [T = QuantLib::Quote]\00", align 1

; Function Attrs: mustprogress uwtable
define linkonce_odr noundef ptr @_ZNK5boost10shared_ptrIN8QuantLib5QuoteEEptEv(ptr noundef nonnull align 8 dereferenceable(16) %this) #2 comdat align 2 {
entry:
  %this.addr = alloca ptr, align 8
  store ptr %this, ptr %this.addr, align 8, !tbaa !3
  %this1 = load ptr, ptr %this.addr, align 8
  %px = getelementptr inbounds nuw %"class.boost::shared_ptr.19", ptr %this1, i32 0, i32 0
  %0 = load ptr, ptr %px, align 8, !tbaa !40
  %cmp = icmp ne ptr %0, null
  %lnot = xor i1 %cmp, true
  %lnot2 = xor i1 %lnot, true
  %conv = zext i1 %lnot2 to i64
  %expval = call i64 @llvm.expect.i64(i64 %conv, i64 1)
  %tobool = icmp ne i64 %expval, 0
  br i1 %tobool, label %cond.true, label %cond.false

cond.true:                                        ; preds = %entry
  br label %cond.end

cond.false:                                       ; preds = %entry
  call void @_ZN5boost16assertion_failedEPKcS1_S1_l(ptr noundef @.str.6, ptr noundef @__PRETTY_FUNCTION__._ZNK5boost10shared_ptrIN8QuantLib5QuoteEEptEv, ptr noundef @.str.7, i64 noundef 784)
  br label %cond.end

cond.end:                                         ; preds = %cond.false, %cond.true
  %px3 = getelementptr inbounds nuw %"class.boost::shared_ptr.19", ptr %this1, i32 0, i32 0
  %1 = load ptr, ptr %px3, align 8, !tbaa !40
  ret ptr %1
}

; Function Attrs: mustprogress uwtable
define void @_ZNK8QuantLib18ImpliedStdDevQuote19performCalculationsEv(ptr noundef nonnull align 8 dereferenceable(96) %this) unnamed_addr #2 align 2 personality ptr @__gxx_personality_v0 {
entry:
  %this.addr = alloca ptr, align 8
  %blackPrice = alloca double, align 8
  %exn.slot = alloca ptr, align 8
  %ehselector.slot = alloca i32, align 4
  %0 = alloca ptr, align 8
  store ptr %this, ptr %this.addr, align 8, !tbaa !3
  %this1 = load ptr, ptr %this.addr, align 8
  call void @llvm.lifetime.start.p0(i64 8, ptr %blackPrice) #13
  %price_ = getelementptr inbounds nuw %"class.QuantLib::ImpliedStdDevQuote", ptr %this1, i32 0, i32 8
  %call = call noundef nonnull align 8 dereferenceable(16) ptr @_ZNK8QuantLib6HandleINS_5QuoteEEptEv(ptr noundef nonnull align 8 dereferenceable(16) %price_)
  %call2 = call noundef ptr @_ZNK5boost10shared_ptrIN8QuantLib5QuoteEEptEv(ptr noundef nonnull align 8 dereferenceable(16) %call)
  %vtable = load ptr, ptr %call2, align 8, !tbaa !20
  %vfn = getelementptr inbounds ptr, ptr %vtable, i64 2
  %1 = load ptr, ptr %vfn, align 8
  %call3 = call noundef double %1(ptr noundef nonnull align 8 dereferenceable(8) %call2)
  store double %call3, ptr %blackPrice, align 8, !tbaa !26
  %optionType_ = getelementptr inbounds nuw %"class.QuantLib::ImpliedStdDevQuote", ptr %this1, i32 0, i32 3
  %2 = load i32, ptr %optionType_, align 8, !tbaa !35
  %strike_ = getelementptr inbounds nuw %"class.QuantLib::ImpliedStdDevQuote", ptr %this1, i32 0, i32 4
  %3 = load double, ptr %strike_, align 8, !tbaa !36
  %forward_ = getelementptr inbounds nuw %"class.QuantLib::ImpliedStdDevQuote", ptr %this1, i32 0, i32 7
  %call4 = invoke noundef nonnull align 8 dereferenceable(16) ptr @_ZNK8QuantLib6HandleINS_5QuoteEEptEv(ptr noundef nonnull align 8 dereferenceable(16) %forward_)
          to label %invoke.cont unwind label %lpad

invoke.cont:                                      ; preds = %entry
  %call6 = invoke noundef ptr @_ZNK5boost10shared_ptrIN8QuantLib5QuoteEEptEv(ptr noundef nonnull align 8 dereferenceable(16) %call4)
          to label %invoke.cont5 unwind label %lpad

invoke.cont5:                                     ; preds = %invoke.cont
  %vtable7 = load ptr, ptr %call6, align 8, !tbaa !20
  %vfn8 = getelementptr inbounds ptr, ptr %vtable7, i64 2
  %4 = load ptr, ptr %vfn8, align 8
  %call10 = invoke noundef double %4(ptr noundef nonnull align 8 dereferenceable(8) %call6)
          to label %invoke.cont9 unwind label %lpad

invoke.cont9:                                     ; preds = %invoke.cont5
  %5 = load double, ptr %blackPrice, align 8, !tbaa !26
  %impliedStdev_ = getelementptr inbounds nuw %"class.QuantLib::ImpliedStdDevQuote", ptr %this1, i32 0, i32 2
  %6 = load double, ptr %impliedStdev_, align 8, !tbaa !30
  %accuracy_ = getelementptr inbounds nuw %"class.QuantLib::ImpliedStdDevQuote", ptr %this1, i32 0, i32 5
  %7 = load double, ptr %accuracy_, align 8, !tbaa !37
  %maxIter_ = getelementptr inbounds nuw %"class.QuantLib::ImpliedStdDevQuote", ptr %this1, i32 0, i32 6
  %8 = load i32, ptr %maxIter_, align 8, !tbaa !38
  %call12 = invoke noundef double @_ZN8QuantLib25blackFormulaImpliedStdDevENS_6Option4TypeEdddddddj(i32 noundef %2, double noundef %3, double noundef %call10, double noundef %5, double noundef 1.000000e+00, double noundef 0.000000e+00, double noundef %6, double noundef %7, i32 noundef %8)
          to label %invoke.cont11 unwind label %lpad

invoke.cont11:                                    ; preds = %invoke.cont9
  %impliedStdev_13 = getelementptr inbounds nuw %"class.QuantLib::ImpliedStdDevQuote", ptr %this1, i32 0, i32 2
  store double %call12, ptr %impliedStdev_13, align 8, !tbaa !30
  br label %try.cont

lpad:                                             ; preds = %invoke.cont9, %invoke.cont5, %invoke.cont, %entry
  %9 = landingpad { ptr, i32 }
          cleanup
          catch ptr @_ZTIN8QuantLib5ErrorE
  %10 = extractvalue { ptr, i32 } %9, 0
  store ptr %10, ptr %exn.slot, align 8
  %11 = extractvalue { ptr, i32 } %9, 1
  store i32 %11, ptr %ehselector.slot, align 4
  br label %catch.dispatch

catch.dispatch:                                   ; preds = %lpad
  %sel = load i32, ptr %ehselector.slot, align 4
  %12 = call i32 @llvm.eh.typeid.for.p0(ptr @_ZTIN8QuantLib5ErrorE) #13
  %matches = icmp eq i32 %sel, %12
  br i1 %matches, label %catch, label %ehcleanup

catch:                                            ; preds = %catch.dispatch
  call void @llvm.lifetime.start.p0(i64 8, ptr %0) #13
  %exn = load ptr, ptr %exn.slot, align 8
  %13 = call ptr @__cxa_begin_catch(ptr %exn) #13
  store ptr %13, ptr %0, align 8
  %impliedStdev_14 = getelementptr inbounds nuw %"class.QuantLib::ImpliedStdDevQuote", ptr %this1, i32 0, i32 2
  store double 0.000000e+00, ptr %impliedStdev_14, align 8, !tbaa !30
  call void @__cxa_end_catch()
  call void @llvm.lifetime.end.p0(i64 8, ptr %0) #13
  br label %try.cont

try.cont:                                         ; preds = %catch, %invoke.cont11
  call void @llvm.lifetime.end.p0(i64 8, ptr %blackPrice) #13
  ret void

ehcleanup:                                        ; preds = %catch.dispatch
  call void @llvm.lifetime.end.p0(i64 8, ptr %blackPrice) #13
  br label %eh.resume

eh.resume:                                        ; preds = %ehcleanup
  %exn15 = load ptr, ptr %exn.slot, align 8
  %sel16 = load i32, ptr %ehselector.slot, align 4
  %lpad.val = insertvalue { ptr, i32 } poison, ptr %exn15, 0
  %lpad.val17 = insertvalue { ptr, i32 } %lpad.val, i32 %sel16, 1
  resume { ptr, i32 } %lpad.val17
}