; Function Attrs: mustprogress uwtable
define void @_ZNK8QuantLib18ImpliedStdDevQuote19performCalculationsEv(ptr noundef nonnull align 8 dereferenceable(96) %this) unnamed_addr #8 align 2 personality ptr @__gxx_personality_v0 {
entry:
  %price_ = getelementptr inbounds nuw i8, ptr %this, i64 80
  %call = tail call noundef nonnull align 8 dereferenceable(16) ptr @_ZNK8QuantLib6HandleINS_5QuoteEEptEv(ptr noundef nonnull align 8 dereferenceable(16) %price_)
  %0 = load ptr, ptr %call, align 8, !tbaa !77
  %cmp.not.i = icmp eq ptr %0, null
  br i1 %cmp.not.i, label %cond.false.i, label %_ZNK5boost10shared_ptrIN8QuantLib5QuoteEEptEv.exit, !prof !76

cond.false.i:                                     ; preds = %entry
  tail call void @_ZN5boost16assertion_failedEPKcS1_S1_l(ptr noundef nonnull @.str.6, ptr noundef nonnull @__PRETTY_FUNCTION__._ZNK5boost10shared_ptrIN8QuantLib5QuoteEEptEv, ptr noundef nonnull @.str.7, i64 noundef 784)
  %.pre.i = load ptr, ptr %call, align 8, !tbaa !77
  br label %_ZNK5boost10shared_ptrIN8QuantLib5QuoteEEptEv.exit

_ZNK5boost10shared_ptrIN8QuantLib5QuoteEEptEv.exit: ; preds = %entry, %cond.false.i
  %1 = phi ptr [ %0, %entry ], [ %.pre.i, %cond.false.i ]
  %vtable = load ptr, ptr %1, align 8, !tbaa !33
  %vfn = getelementptr inbounds i8, ptr %vtable, i64 16
  %2 = load ptr, ptr %vfn, align 8
  %call3 = tail call noundef double %2(ptr noundef nonnull align 8 dereferenceable(8) %1)
  %optionType_ = getelementptr inbounds nuw i8, ptr %this, i64 32
  %3 = load i32, ptr %optionType_, align 8, !tbaa !54
  %strike_ = getelementptr inbounds nuw i8, ptr %this, i64 40
  %4 = load double, ptr %strike_, align 8, !tbaa !55
  %forward_ = getelementptr inbounds nuw i8, ptr %this, i64 64
  %call4 = invoke noundef nonnull align 8 dereferenceable(16) ptr @_ZNK8QuantLib6HandleINS_5QuoteEEptEv(ptr noundef nonnull align 8 dereferenceable(16) %forward_)
          to label %invoke.cont unwind label %lpad

invoke.cont:                                      ; preds = %_ZNK5boost10shared_ptrIN8QuantLib5QuoteEEptEv.exit
  %5 = load ptr, ptr %call4, align 8, !tbaa !77
  %cmp.not.i2 = icmp eq ptr %5, null
  br i1 %cmp.not.i2, label %cond.false.i3, label %invoke.cont5, !prof !76

cond.false.i3:                                    ; preds = %invoke.cont
  invoke void @_ZN5boost16assertion_failedEPKcS1_S1_l(ptr noundef nonnull @.str.6, ptr noundef nonnull @__PRETTY_FUNCTION__._ZNK5boost10shared_ptrIN8QuantLib5QuoteEEptEv, ptr noundef nonnull @.str.7, i64 noundef 784)
          to label %.noexc unwind label %lpad

.noexc:                                           ; preds = %cond.false.i3
  %.pre.i4 = load ptr, ptr %call4, align 8, !tbaa !77
  br label %invoke.cont5

invoke.cont5:                                     ; preds = %.noexc, %invoke.cont
  %6 = phi ptr [ %5, %invoke.cont ], [ %.pre.i4, %.noexc ]
  %vtable7 = load ptr, ptr %6, align 8, !tbaa !33
  %vfn8 = getelementptr inbounds i8, ptr %vtable7, i64 16
  %7 = load ptr, ptr %vfn8, align 8
  %call10 = invoke noundef double %7(ptr noundef nonnull align 8 dereferenceable(8) %6)
          to label %invoke.cont9 unwind label %lpad

invoke.cont9:                                     ; preds = %invoke.cont5
  %impliedStdev_ = getelementptr inbounds nuw i8, ptr %this, i64 24
  %8 = load double, ptr %impliedStdev_, align 8, !tbaa !46
  %accuracy_ = getelementptr inbounds nuw i8, ptr %this, i64 48
  %9 = load double, ptr %accuracy_, align 8, !tbaa !56
  %maxIter_ = getelementptr inbounds nuw i8, ptr %this, i64 56
  %10 = load i32, ptr %maxIter_, align 8, !tbaa !57
  %call12 = invoke noundef double @_ZN8QuantLib25blackFormulaImpliedStdDevENS_6Option4TypeEdddddddj(i32 noundef %3, double noundef %4, double noundef %call10, double noundef %call3, double noundef 1.000000e+00, double noundef 0.000000e+00, double noundef %8, double noundef %9, i32 noundef %10)
          to label %invoke.cont11 unwind label %lpad

invoke.cont11:                                    ; preds = %invoke.cont9
  store double %call12, ptr %impliedStdev_, align 8, !tbaa !46
  br label %try.cont

lpad:                                             ; preds = %cond.false.i3, %invoke.cont9, %invoke.cont5, %_ZNK5boost10shared_ptrIN8QuantLib5QuoteEEptEv.exit
  %11 = landingpad { ptr, i32 }
          cleanup
          catch ptr @_ZTIN8QuantLib5ErrorE
  %12 = extractvalue { ptr, i32 } %11, 1
  %13 = tail call i32 @llvm.eh.typeid.for.p0(ptr nonnull @_ZTIN8QuantLib5ErrorE) #26
  %matches = icmp eq i32 %12, %13
  br i1 %matches, label %catch, label %ehcleanup

catch:                                            ; preds = %lpad
  %14 = extractvalue { ptr, i32 } %11, 0
  %15 = tail call ptr @__cxa_begin_catch(ptr %14) #26
  %impliedStdev_14 = getelementptr inbounds nuw i8, ptr %this, i64 24
  store double 0.000000e+00, ptr %impliedStdev_14, align 8, !tbaa !46
  tail call void @__cxa_end_catch()
  br label %try.cont

try.cont:                                         ; preds = %catch, %invoke.cont11
  ret void

ehcleanup:                                        ; preds = %lpad
  resume { ptr, i32 } %11
}